target datalayout = "e-m:e-p270:32:32-p271:32:32-p272:64:64-i64:64-i128:128-f80:128-n8:16:32:64-S128"
target triple = "x86_64-pc-linux-gnu"

%struct.CvMat = type { i32, i32, ptr, i32, %union.anon, %union.anon.0, %union.anon.1 }
%union.anon = type { ptr }
%union.anon.0 = type { i32 }
%union.anon.1 = type { i32 }

; Function Attrs: inlinehint mustprogress nounwind uwtable
define internal void @_ZL5cvMatiiiPv(ptr dead_on_unwind noalias writable sret(%struct.CvMat) align 8 %0, i32 noundef %1, i32 noundef %2, i32 noundef %3, ptr noundef %4) #6 {
  %6 = alloca i32, align 4
  %7 = alloca i32, align 4
  %8 = alloca i32, align 4
  %9 = alloca ptr, align 8
  store i32 %1, ptr %6, align 4, !tbaa !10
  store i32 %2, ptr %7, align 4, !tbaa !10
  store i32 %3, ptr %8, align 4, !tbaa !10
  store ptr %4, ptr %9, align 8, !tbaa !75
  %10 = load i32, ptr %8, align 4, !tbaa !10
  %11 = and i32 %10, 4095
  store i32 %11, ptr %8, align 4, !tbaa !10
  %12 = load i32, ptr %8, align 4, !tbaa !10
  %13 = or i32 1111638016, %12
  %14 = getelementptr inbounds nuw %struct.CvMat, ptr %0, i32 0, i32 0
  store i32 %13, ptr %14, align 8, !tbaa !76
  %15 = load i32, ptr %7, align 4, !tbaa !10
  %16 = getelementptr inbounds nuw %struct.CvMat, ptr %0, i32 0, i32 6
  store i32 %15, ptr %16, align 4, !tbaa !70
  %17 = load i32, ptr %6, align 4, !tbaa !10
  %18 = getelementptr inbounds nuw %struct.CvMat, ptr %0, i32 0, i32 5
  store i32 %17, ptr %18, align 8, !tbaa !70
  %19 = getelementptr inbounds nuw %struct.CvMat, ptr %0, i32 0, i32 6
  %20 = load i32, ptr %19, align 4, !tbaa !70
  %21 = load i32, ptr %8, align 4, !tbaa !10
  %22 = and i32 %21, 4088
  %23 = ashr i32 %22, 3
  %24 = add nsw i32 %23, 1
  %25 = load i32, ptr %8, align 4, !tbaa !10
  %26 = and i32 %25, 7
  %27 = mul nsw i32 %26, 4
  %28 = ashr i32 675553809, %27
  %29 = and i32 %28, 15
  %30 = mul nsw i32 %24, %29
  %31 = mul nsw i32 %20, %30
  %32 = getelementptr inbounds nuw %struct.CvMat, ptr %0, i32 0, i32 1
  store i32 %31, ptr %32, align 4, !tbaa !78
  %33 = load ptr, ptr %9, align 8, !tbaa !75
  %34 = getelementptr inbounds nuw %struct.CvMat, ptr %0, i32 0, i32 4
  store ptr %33, ptr %34, align 8, !tbaa !70
  %35 = getelementptr inbounds nuw %struct.CvMat, ptr %0, i32 0, i32 2
  store ptr null, ptr %35, align 8, !tbaa !79
  %36 = getelementptr inbounds nuw %struct.CvMat, ptr %0, i32 0, i32 3
  store i32 0, ptr %36, align 8, !tbaa !80
  ret void
}

; Function Attrs: mustprogress uwtable
define hidden void @_ZN2cv4epnp12gauss_newtonEPK5CvMatS3_Pd(ptr noundef nonnull align 8 dereferenceable(352) %0, ptr noundef %1, ptr noundef %2, ptr noundef %3) #4 align 2 {
  %5 = alloca ptr, align 8
  %6 = alloca ptr, align 8
  %7 = alloca ptr, align 8
  %8 = alloca ptr, align 8
  %9 = alloca i32, align 4
  %10 = alloca [24 x double], align 16
  %11 = alloca [6 x double], align 16
  %12 = alloca [4 x double], align 16
  %13 = alloca %struct.CvMat, align 8
  %14 = alloca %struct.CvMat, align 8
  %15 = alloca %struct.CvMat, align 8
  %16 = alloca i32, align 4
  %17 = alloca i32, align 4
  %18 = alloca i32, align 4
  store ptr %0, ptr %5, align 8, !tbaa !3
  store ptr %1, ptr %6, align 8, !tbaa !68
  store ptr %2, ptr %7, align 8, !tbaa !68
  store ptr %3, ptr %8, align 8, !tbaa !83
  %19 = load ptr, ptr %5, align 8
  call void @llvm.lifetime.start.p0(i64 4, ptr %9) #3
  store i32 5, ptr %9, align 4, !tbaa !10
  call void @llvm.lifetime.start.p0(i64 192, ptr %10) #3
  call void @llvm.memset.p0.i64(ptr align 16 %10, i8 0, i64 192, i1 false)
  call void @llvm.lifetime.start.p0(i64 48, ptr %11) #3
  call void @llvm.memset.p0.i64(ptr align 16 %11, i8 0, i64 48, i1 false)
  call void @llvm.lifetime.start.p0(i64 32, ptr %12) #3
  call void @llvm.memset.p0.i64(ptr align 16 %12, i8 0, i64 32, i1 false)
  call void @llvm.lifetime.start.p0(i64 40, ptr %13) #3
  %20 = getelementptr inbounds [24 x double], ptr %10, i64 0, i64 0
  call void @_ZL5cvMatiiiPv(ptr dead_on_unwind writable sret(%struct.CvMat) align 8 %13, i32 noundef 6, i32 noundef 4, i32 noundef 6, ptr noundef %20)
  call void @llvm.lifetime.start.p0(i64 40, ptr %14) #3
  %21 = getelementptr inbounds [6 x double], ptr %11, i64 0, i64 0
  call void @_ZL5cvMatiiiPv(ptr dead_on_unwind writable sret(%struct.CvMat) align 8 %14, i32 noundef 6, i32 noundef 1, i32 noundef 6, ptr noundef %21)
  call void @llvm.lifetime.start.p0(i64 40, ptr %15) #3
  %22 = getelementptr inbounds [4 x double], ptr %12, i64 0, i64 0
  call void @_ZL5cvMatiiiPv(ptr dead_on_unwind writable sret(%struct.CvMat) align 8 %15, i32 noundef 4, i32 noundef 1, i32 noundef 6, ptr noundef %22)
  call void @llvm.lifetime.start.p0(i64 4, ptr %16) #3
  store i32 0, ptr %16, align 4, !tbaa !10
  br label %23

23:                                               ; preds = %54, %4
  %24 = load i32, ptr %16, align 4, !tbaa !10
  %25 = icmp slt i32 %24, 5
  br i1 %25, label %27, label %26

26:                                               ; preds = %23
  store i32 2, ptr %17, align 4
  call void @llvm.lifetime.end.p0(i64 4, ptr %16) #3
  br label %57

27:                                               ; preds = %23
  %28 = load ptr, ptr %6, align 8, !tbaa !68
  %29 = getelementptr inbounds nuw %struct.CvMat, ptr %28, i32 0, i32 4
  %30 = load ptr, ptr %29, align 8, !tbaa !70
  %31 = load ptr, ptr %7, align 8, !tbaa !68
  %32 = getelementptr inbounds nuw %struct.CvMat, ptr %31, i32 0, i32 4
  %33 = load ptr, ptr %32, align 8, !tbaa !70
  %34 = load ptr, ptr %8, align 8, !tbaa !83
  call void @_ZN2cv4epnp28compute_A_and_b_gauss_newtonEPKdS2_S2_P5CvMatS4_(ptr noundef nonnull align 8 dereferenceable(352) %19, ptr noundef %30, ptr noundef %33, ptr noundef %34, ptr noundef %13, ptr noundef %14)
  call void @_ZN2cv4epnp8qr_solveEP5CvMatS2_S2_(ptr noundef nonnull align 8 dereferenceable(352) %19, ptr noundef %13, ptr noundef %14, ptr noundef %15)
  call void @llvm.lifetime.start.p0(i64 4, ptr %18) #3
  store i32 0, ptr %18, align 4, !tbaa !10
  br label %35

35:                                               ; preds = %50, %27
  %36 = load i32, ptr %18, align 4, !tbaa !10
  %37 = icmp slt i32 %36, 4
  br i1 %37, label %39, label %38

38:                                               ; preds = %35
  store i32 5, ptr %17, align 4
  call void @llvm.lifetime.end.p0(i64 4, ptr %18) #3
  br label %53

39:                                               ; preds = %35
  %40 = load i32, ptr %18, align 4, !tbaa !10
  %41 = sext i32 %40 to i64
  %42 = getelementptr inbounds [4 x double], ptr %12, i64 0, i64 %41
  %43 = load double, ptr %42, align 8, !tbaa !40
  %44 = load ptr, ptr %8, align 8, !tbaa !83
  %45 = load i32, ptr %18, align 4, !tbaa !10
  %46 = sext i32 %45 to i64
  %47 = getelementptr inbounds double, ptr %44, i64 %46
  %48 = load double, ptr %47, align 8, !tbaa !40
  %49 = fadd double %48, %43
  store double %49, ptr %47, align 8, !tbaa !40
  br label %50

50:                                               ; preds = %39
  %51 = load i32, ptr %18, align 4, !tbaa !10
  %52 = add nsw i32 %51, 1
  store i32 %52, ptr %18, align 4, !tbaa !10
  br label %35, !llvm.loop !98

53:                                               ; preds = %38
  br label %54

54:                                               ; preds = %53
  %55 = load i32, ptr %16, align 4, !tbaa !10
  %56 = add nsw i32 %55, 1
  store i32 %56, ptr %16, align 4, !tbaa !10
  br label %23, !llvm.loop !99

57:                                               ; preds = %26
  call void @llvm.lifetime.end.p0(i64 40, ptr %15) #3
  call void @llvm.lifetime.end.p0(i64 40, ptr %14) #3
  call void @llvm.lifetime.end.p0(i64 40, ptr %13) #3
  call void @llvm.lifetime.end.p0(i64 32, ptr %12) #3
  call void @llvm.lifetime.end.p0(i64 48, ptr %11) #3
  call void @llvm.lifetime.end.p0(i64 192, ptr %10) #3
  call void @llvm.lifetime.end.p0(i64 4, ptr %9) #3
  ret void
}