; Function Attrs: mustprogress uwtable
define hidden void @_ZN2cv4epnp12gauss_newtonEPK5CvMatS3_Pd(ptr noundef nonnull align 8 captures(none) dereferenceable(352) %0, ptr noundef readonly captures(none) %1, ptr noundef readonly captures(none) %2, ptr noundef captures(none) %3) local_unnamed_addr #3 align 2 {
  %5 = alloca [24 x double], align 16
  %6 = alloca [6 x double], align 16
  %7 = alloca [4 x double], align 16
  %8 = alloca %struct.CvMat, align 8
  %9 = alloca %struct.CvMat, align 8
  %10 = alloca %struct.CvMat, align 8
  call void @llvm.lifetime.start.p0(i64 192, ptr nonnull %5) #24
  call void @llvm.memset.p0.i64(ptr noundef nonnull align 16 dereferenceable(192) %5, i8 0, i64 192, i1 false)
  call void @llvm.lifetime.start.p0(i64 48, ptr nonnull %6) #24
  call void @llvm.memset.p0.i64(ptr noundef nonnull align 16 dereferenceable(48) %6, i8 0, i64 48, i1 false)
  call void @llvm.lifetime.start.p0(i64 32, ptr nonnull %7) #24
  call void @llvm.memset.p0.i64(ptr noundef nonnull align 16 dereferenceable(32) %7, i8 0, i64 32, i1 false)
  call void @llvm.lifetime.start.p0(i64 40, ptr nonnull %8) #24
  store i32 1111638022, ptr %8, align 8, !tbaa !64, !alias.scope !131
  %11 = getelementptr inbounds nuw i8, ptr %8, i64 36
  store i32 4, ptr %11, align 4, !tbaa !69, !alias.scope !131
  %12 = getelementptr inbounds nuw i8, ptr %8, i64 32
  store i32 6, ptr %12, align 8, !tbaa !69, !alias.scope !131
  %13 = getelementptr inbounds nuw i8, ptr %8, i64 4
  store i32 32, ptr %13, align 4, !tbaa !70, !alias.scope !131
  %14 = getelementptr inbounds nuw i8, ptr %8, i64 24
  store ptr %5, ptr %14, align 8, !tbaa !69, !alias.scope !131
  %15 = getelementptr inbounds nuw i8, ptr %8, i64 8
  store ptr null, ptr %15, align 8, !tbaa !71, !alias.scope !131
  %16 = getelementptr inbounds nuw i8, ptr %8, i64 16
  store i32 0, ptr %16, align 8, !tbaa !72, !alias.scope !131
  call void @llvm.lifetime.start.p0(i64 40, ptr nonnull %9) #24
  store i32 1111638022, ptr %9, align 8, !tbaa !64, !alias.scope !134
  %17 = getelementptr inbounds nuw i8, ptr %9, i64 36
  store i32 1, ptr %17, align 4, !tbaa !69, !alias.scope !134
  %18 = getelementptr inbounds nuw i8, ptr %9, i64 32
  store i32 6, ptr %18, align 8, !tbaa !69, !alias.scope !134
  %19 = getelementptr inbounds nuw i8, ptr %9, i64 4
  store i32 8, ptr %19, align 4, !tbaa !70, !alias.scope !134
  %20 = getelementptr inbounds nuw i8, ptr %9, i64 24
  store ptr %6, ptr %20, align 8, !tbaa !69, !alias.scope !134
  %21 = getelementptr inbounds nuw i8, ptr %9, i64 8
  store ptr null, ptr %21, align 8, !tbaa !71, !alias.scope !134
  %22 = getelementptr inbounds nuw i8, ptr %9, i64 16
  store i32 0, ptr %22, align 8, !tbaa !72, !alias.scope !134
  call void @llvm.lifetime.start.p0(i64 40, ptr nonnull %10) #24
  store i32 1111638022, ptr %10, align 8, !tbaa !64, !alias.scope !137
  %23 = getelementptr inbounds nuw i8, ptr %10, i64 36
  store i32 1, ptr %23, align 4, !tbaa !69, !alias.scope !137
  %24 = getelementptr inbounds nuw i8, ptr %10, i64 32
  store i32 4, ptr %24, align 8, !tbaa !69, !alias.scope !137
  %25 = getelementptr inbounds nuw i8, ptr %10, i64 4
  store i32 8, ptr %25, align 4, !tbaa !70, !alias.scope !137
  %26 = getelementptr inbounds nuw i8, ptr %10, i64 24
  store ptr %7, ptr %26, align 8, !tbaa !69, !alias.scope !137
  %27 = getelementptr inbounds nuw i8, ptr %10, i64 8
  store ptr null, ptr %27, align 8, !tbaa !71, !alias.scope !137
  %28 = getelementptr inbounds nuw i8, ptr %10, i64 16
  store i32 0, ptr %28, align 8, !tbaa !72, !alias.scope !137
  %29 = getelementptr inbounds nuw i8, ptr %1, i64 24
  %30 = getelementptr inbounds nuw i8, ptr %2, i64 24
  br label %32

31:                                               ; preds = %35
  call void @llvm.lifetime.end.p0(i64 40, ptr nonnull %10) #24
  call void @llvm.lifetime.end.p0(i64 40, ptr nonnull %9) #24
  call void @llvm.lifetime.end.p0(i64 40, ptr nonnull %8) #24
  call void @llvm.lifetime.end.p0(i64 32, ptr nonnull %7) #24
  call void @llvm.lifetime.end.p0(i64 48, ptr nonnull %6) #24
  call void @llvm.lifetime.end.p0(i64 192, ptr nonnull %5) #24
  ret void

32:                                               ; preds = %4, %35
  %.01012 = phi i32 [ 0, %4 ], [ %36, %35 ]
  %33 = load ptr, ptr %29, align 8, !tbaa !69
  %34 = load ptr, ptr %30, align 8, !tbaa !69
  call void @_ZN2cv4epnp28compute_A_and_b_gauss_newtonEPKdS2_S2_P5CvMatS4_(ptr nonnull align 8 poison, ptr noundef %33, ptr noundef %34, ptr noundef %3, ptr noundef nonnull %8, ptr noundef nonnull %9)
  call void @_ZN2cv4epnp8qr_solveEP5CvMatS2_S2_(ptr noundef nonnull align 8 dereferenceable(352) %0, ptr noundef nonnull %8, ptr noundef nonnull %9, ptr noundef nonnull %10)
  br label %37

35:                                               ; preds = %37
  %36 = add nuw nsw i32 %.01012, 1
  %exitcond14.not = icmp eq i32 %36, 5
  br i1 %exitcond14.not, label %31, label %32, !llvm.loop !140

37:                                               ; preds = %32, %37
  %indvars.iv = phi i64 [ 0, %32 ], [ %indvars.iv.next, %37 ]
  %38 = getelementptr inbounds nuw [4 x double], ptr %7, i64 0, i64 %indvars.iv
  %39 = load double, ptr %38, align 8, !tbaa !32
  %40 = getelementptr inbounds nuw double, ptr %3, i64 %indvars.iv
  %41 = load double, ptr %40, align 8, !tbaa !32
  %42 = fadd double %39, %41
  store double %42, ptr %40, align 8, !tbaa !32
  %indvars.iv.next = add nuw nsw i64 %indvars.iv, 1
  %exitcond.not = icmp eq i64 %indvars.iv.next, 4
  br i1 %exitcond.not, label %35, label %37, !llvm.loop !141
}